target datalayout = "e-m:e-p270:32:32-p271:32:32-p272:64:64-i64:64-i128:128-f80:128-n8:16:32:64-S128"
target triple = "x86_64-pc-linux-gnu"

%struct.FunctionCallInfoBaseData = type { ptr, ptr, ptr, i32, i8, i16, [0 x %struct.NullableDatum] }
%struct.NullableDatum = type { i64, i8 }

@.str.1 = private unnamed_addr constant [15 x i8] c"ginarrayproc.c\00", align 1
@.str.3 = private unnamed_addr constant [48 x i8] c"ginarrayconsistent: unknown strategy number: %d\00", align 1
@__func__.ginarraytriconsistent = private unnamed_addr constant [22 x i8] c"ginarraytriconsistent\00", align 1

; Function Attrs: inlinehint nounwind uwtable
define internal i64 @GinTernaryValueGetDatum(i8 noundef signext %0) #3 {
  %2 = alloca i8, align 1
  store i8 %0, ptr %2, align 1
  %3 = load i8, ptr %2, align 1
  %4 = sext i8 %3 to i64
  ret i64 %4
}

; Function Attrs: inlinehint nounwind uwtable
define internal i32 @DatumGetInt32(i64 noundef %0) #3 {
  %2 = alloca i64, align 8
  store i64 %0, ptr %2, align 8
  %3 = load i64, ptr %2, align 8
  %4 = trunc i64 %3 to i32
  ret i32 %4
}

; Function Attrs: inlinehint nounwind uwtable
define internal zeroext i16 @DatumGetUInt16(i64 noundef %0) #3 {
  %2 = alloca i64, align 8
  store i64 %0, ptr %2, align 8
  %3 = load i64, ptr %2, align 8
  %4 = trunc i64 %3 to i16
  ret i16 %4
}

; Function Attrs: inlinehint nounwind uwtable
define internal ptr @DatumGetPointer(i64 noundef %0) #3 {
  %2 = alloca i64, align 8
  store i64 %0, ptr %2, align 8
  %3 = load i64, ptr %2, align 8
  %4 = inttoptr i64 %3 to ptr
  ret ptr %4
}

; Function Attrs: nounwind uwtable
define dso_local i64 @ginarraytriconsistent(ptr noundef %0) #0 {
  %2 = alloca ptr, align 8
  %3 = alloca ptr, align 8
  %4 = alloca i16, align 2
  %5 = alloca i32, align 4
  %6 = alloca ptr, align 8
  %7 = alloca i8, align 1
  %8 = alloca i32, align 4
  store ptr %0, ptr %2, align 8
  call void @llvm.lifetime.start.p0(i64 8, ptr %3) #5
  %9 = load ptr, ptr %2, align 8
  %10 = getelementptr inbounds nuw %struct.FunctionCallInfoBaseData, ptr %9, i32 0, i32 6
  %11 = getelementptr inbounds [0 x %struct.NullableDatum], ptr %10, i64 0, i64 0
  %12 = getelementptr inbounds nuw %struct.NullableDatum, ptr %11, i32 0, i32 0
  %13 = load i64, ptr %12, align 8
  %14 = call ptr @DatumGetPointer(i64 noundef %13)
  store ptr %14, ptr %3, align 8
  call void @llvm.lifetime.start.p0(i64 2, ptr %4) #5
  %15 = load ptr, ptr %2, align 8
  %16 = getelementptr inbounds nuw %struct.FunctionCallInfoBaseData, ptr %15, i32 0, i32 6
  %17 = getelementptr inbounds [0 x %struct.NullableDatum], ptr %16, i64 0, i64 1
  %18 = getelementptr inbounds nuw %struct.NullableDatum, ptr %17, i32 0, i32 0
  %19 = load i64, ptr %18, align 8
  %20 = call zeroext i16 @DatumGetUInt16(i64 noundef %19)
  store i16 %20, ptr %4, align 2
  call void @llvm.lifetime.start.p0(i64 4, ptr %5) #5
  %21 = load ptr, ptr %2, align 8
  %22 = getelementptr inbounds nuw %struct.FunctionCallInfoBaseData, ptr %21, i32 0, i32 6
  %23 = getelementptr inbounds [0 x %struct.NullableDatum], ptr %22, i64 0, i64 3
  %24 = getelementptr inbounds nuw %struct.NullableDatum, ptr %23, i32 0, i32 0
  %25 = load i64, ptr %24, align 8
  %26 = call i32 @DatumGetInt32(i64 noundef %25)
  store i32 %26, ptr %5, align 4
  call void @llvm.lifetime.start.p0(i64 8, ptr %6) #5
  %27 = load ptr, ptr %2, align 8
  %28 = getelementptr inbounds nuw %struct.FunctionCallInfoBaseData, ptr %27, i32 0, i32 6
  %29 = getelementptr inbounds [0 x %struct.NullableDatum], ptr %28, i64 0, i64 6
  %30 = getelementptr inbounds nuw %struct.NullableDatum, ptr %29, i32 0, i32 0
  %31 = load i64, ptr %30, align 8
  %32 = call ptr @DatumGetPointer(i64 noundef %31)
  store ptr %32, ptr %6, align 8
  call void @llvm.lifetime.start.p0(i64 1, ptr %7) #5
  call void @llvm.lifetime.start.p0(i64 4, ptr %8) #5
  %33 = load i16, ptr %4, align 2
  %34 = zext i16 %33 to i32
  switch i32 %34, label %131 [
    i32 1, label %35
    i32 2, label %76
    i32 3, label %111
    i32 4, label %112
  ]

35:                                               ; preds = %1
  store i8 0, ptr %7, align 1
  store i32 0, ptr %8, align 4
  br label %36

36:                                               ; preds = %72, %35
  %37 = load i32, ptr %8, align 4
  %38 = load i32, ptr %5, align 4
  %39 = icmp slt i32 %37, %38
  br i1 %39, label %40, label %75

40:                                               ; preds = %36
  %41 = load ptr, ptr %6, align 8
  %42 = load i32, ptr %8, align 4
  %43 = sext i32 %42 to i64
  %44 = getelementptr inbounds i8, ptr %41, i64 %43
  %45 = load i8, ptr %44, align 1, !range !4, !noundef !5
  %46 = trunc i8 %45 to i1
  br i1 %46, label %71, label %47

47:                                               ; preds = %40
  %48 = load ptr, ptr %3, align 8
  %49 = load i32, ptr %8, align 4
  %50 = sext i32 %49 to i64
  %51 = getelementptr inbounds i8, ptr %48, i64 %50
  %52 = load i8, ptr %51, align 1
  %53 = sext i8 %52 to i32
  %54 = icmp eq i32 %53, 1
  br i1 %54, label %55, label %56

55:                                               ; preds = %47
  store i8 1, ptr %7, align 1
  br label %75

56:                                               ; preds = %47
  %57 = load ptr, ptr %3, align 8
  %58 = load i32, ptr %8, align 4
  %59 = sext i32 %58 to i64
  %60 = getelementptr inbounds i8, ptr %57, i64 %59
  %61 = load i8, ptr %60, align 1
  %62 = sext i8 %61 to i32
  %63 = icmp eq i32 %62, 2
  br i1 %63, label %64, label %69

64:                                               ; preds = %56
  %65 = load i8, ptr %7, align 1
  %66 = sext i8 %65 to i32
  %67 = icmp eq i32 %66, 0
  br i1 %67, label %68, label %69

68:                                               ; preds = %64
  store i8 2, ptr %7, align 1
  br label %69

69:                                               ; preds = %68, %64, %56
  br label %70

70:                                               ; preds = %69
  br label %71

71:                                               ; preds = %70, %40
  br label %72

72:                                               ; preds = %71
  %73 = load i32, ptr %8, align 4
  %74 = add i32 %73, 1
  store i32 %74, ptr %8, align 4
  br label %36, !llvm.loop !10

75:                                               ; preds = %55, %36
  br label %144

76:                                               ; preds = %1
  store i8 1, ptr %7, align 1
  store i32 0, ptr %8, align 4
  br label %77

77:                                               ; preds = %107, %76
  %78 = load i32, ptr %8, align 4
  %79 = load i32, ptr %5, align 4
  %80 = icmp slt i32 %78, %79
  br i1 %80, label %81, label %110

81:                                               ; preds = %77
  %82 = load ptr, ptr %3, align 8
  %83 = load i32, ptr %8, align 4
  %84 = sext i32 %83 to i64
  %85 = getelementptr inbounds i8, ptr %82, i64 %84
  %86 = load i8, ptr %85, align 1
  %87 = sext i8 %86 to i32
  %88 = icmp eq i32 %87, 0
  br i1 %88, label %96, label %89

89:                                               ; preds = %81
  %90 = load ptr, ptr %6, align 8
  %91 = load i32, ptr %8, align 4
  %92 = sext i32 %91 to i64
  %93 = getelementptr inbounds i8, ptr %90, i64 %92
  %94 = load i8, ptr %93, align 1, !range !4, !noundef !5
  %95 = trunc i8 %94 to i1
  br i1 %95, label %96, label %97

96:                                               ; preds = %89, %81
  store i8 0, ptr %7, align 1
  br label %110

97:                                               ; preds = %89
  %98 = load ptr, ptr %3, align 8
  %99 = load i32, ptr %8, align 4
  %100 = sext i32 %99 to i64
  %101 = getelementptr inbounds i8, ptr %98, i64 %100
  %102 = load i8, ptr %101, align 1
  %103 = sext i8 %102 to i32
  %104 = icmp eq i32 %103, 2
  br i1 %104, label %105, label %106

105:                                              ; preds = %97
  store i8 2, ptr %7, align 1
  br label %106

106:                                              ; preds = %105, %97
  br label %107

107:                                              ; preds = %106
  %108 = load i32, ptr %8, align 4
  %109 = add i32 %108, 1
  store i32 %109, ptr %8, align 4
  br label %77, !llvm.loop !11

110:                                              ; preds = %96, %77
  br label %144

111:                                              ; preds = %1
  store i8 2, ptr %7, align 1
  br label %144

112:                                              ; preds = %1
  store i8 2, ptr %7, align 1
  store i32 0, ptr %8, align 4
  br label %113

113:                                              ; preds = %127, %112
  %114 = load i32, ptr %8, align 4
  %115 = load i32, ptr %5, align 4
  %116 = icmp slt i32 %114, %115
  br i1 %116, label %117, label %130

117:                                              ; preds = %113
  %118 = load ptr, ptr %3, align 8
  %119 = load i32, ptr %8, align 4
  %120 = sext i32 %119 to i64
  %121 = getelementptr inbounds i8, ptr %118, i64 %120
  %122 = load i8, ptr %121, align 1
  %123 = sext i8 %122 to i32
  %124 = icmp eq i32 %123, 0
  br i1 %124, label %125, label %126

125:                                              ; preds = %117
  store i8 0, ptr %7, align 1
  br label %130

126:                                              ; preds = %117
  br label %127

127:                                              ; preds = %126
  %128 = load i32, ptr %8, align 4
  %129 = add i32 %128, 1
  store i32 %129, ptr %8, align 4
  br label %113, !llvm.loop !12

130:                                              ; preds = %125, %113
  br label %144

131:                                              ; preds = %1
  br label %132

132:                                              ; preds = %131
  br i1 true, label %133, label %135

133:                                              ; preds = %132
  %134 = call zeroext i1 @errstart_cold(i32 noundef 21, ptr noundef null) #6
  br i1 %134, label %137, label %141

135:                                              ; preds = %132
  %136 = call zeroext i1 @errstart(i32 noundef 21, ptr noundef null)
  br i1 %136, label %137, label %141

137:                                              ; preds = %135, %133
  %138 = load i16, ptr %4, align 2
  %139 = zext i16 %138 to i32
  %140 = call i32 (ptr, ...) @errmsg_internal(ptr noundef @.str.3, i32 noundef %139)
  call void @errfinish(ptr noundef @.str.1, i32 noundef 300, ptr noundef @__func__.ginarraytriconsistent)
  br label %141

141:                                              ; preds = %137, %135, %133
  unreachable

142:                                              ; No predecessors!
  br label %143

143:                                              ; preds = %142
  store i8 0, ptr %7, align 1
  br label %144

144:                                              ; preds = %143, %130, %111, %110, %75
  %145 = load i8, ptr %7, align 1
  %146 = call i64 @GinTernaryValueGetDatum(i8 noundef signext %145)
  call void @llvm.lifetime.end.p0(i64 4, ptr %8) #5
  call void @llvm.lifetime.end.p0(i64 1, ptr %7) #5
  call void @llvm.lifetime.end.p0(i64 8, ptr %6) #5
  call void @llvm.lifetime.end.p0(i64 4, ptr %5) #5
  call void @llvm.lifetime.end.p0(i64 2, ptr %4) #5
  call void @llvm.lifetime.end.p0(i64 8, ptr %3) #5
  ret i64 %146
}