; Function Attrs: nounwind uwtable
define dso_local range(i64 0, 3) i64 @ginarraytriconsistent(ptr noundef readonly captures(none) %0) local_unnamed_addr #0 {
  %2 = getelementptr inbounds nuw i8, ptr %0, i64 32
  %3 = load i64, ptr %2, align 8
  %4 = inttoptr i64 %3 to ptr
  %5 = getelementptr inbounds nuw i8, ptr %0, i64 48
  %6 = load i64, ptr %5, align 8
  %7 = trunc i64 %6 to i16
  %8 = getelementptr inbounds nuw i8, ptr %0, i64 80
  %9 = load i64, ptr %8, align 8
  %10 = trunc i64 %9 to i32
  %11 = getelementptr inbounds nuw i8, ptr %0, i64 128
  %12 = load i64, ptr %11, align 8
  %13 = inttoptr i64 %12 to ptr
  switch i16 %7, label %41 [
    i16 1, label %.preheader
    i16 2, label %.preheader37
    i16 3, label %.loopexit
    i16 4, label %.preheader40
  ]

.preheader40:                                     ; preds = %1
  %14 = icmp sgt i32 %10, 0
  br i1 %14, label %.lr.ph.preheader, label %.loopexit

.lr.ph.preheader:                                 ; preds = %.preheader40
  %wide.trip.count = and i64 %9, 2147483647
  br label %.lr.ph

.preheader37:                                     ; preds = %1
  %15 = icmp sgt i32 %10, 0
  br i1 %15, label %.lr.ph48.preheader, label %.loopexit

.lr.ph48.preheader:                               ; preds = %.preheader37
  %wide.trip.count67 = and i64 %9, 2147483647
  br label %.lr.ph48

.preheader:                                       ; preds = %1
  %16 = icmp sgt i32 %10, 0
  br i1 %16, label %.lr.ph56.preheader, label %.loopexit

.lr.ph56.preheader:                               ; preds = %.preheader
  %wide.trip.count71 = and i64 %9, 2147483647
  br label %.lr.ph56

.lr.ph56:                                         ; preds = %.lr.ph56.preheader, %27
  %indvars.iv69 = phi i64 [ 0, %.lr.ph56.preheader ], [ %indvars.iv.next70, %27 ]
  %.03254 = phi i8 [ 0, %.lr.ph56.preheader ], [ %.133, %27 ]
  %17 = getelementptr inbounds nuw i8, ptr %13, i64 %indvars.iv69
  %18 = load i8, ptr %17, align 1, !range !4, !noundef !5
  %19 = trunc nuw i8 %18 to i1
  br i1 %19, label %27, label %20

20:                                               ; preds = %.lr.ph56
  %21 = getelementptr inbounds nuw i8, ptr %4, i64 %indvars.iv69
  %22 = load i8, ptr %21, align 1
  %23 = icmp eq i8 %22, 1
  br i1 %23, label %.loopexit, label %24

24:                                               ; preds = %20
  %25 = icmp eq i8 %22, 2
  %26 = icmp eq i8 %.03254, 0
  %or.cond = select i1 %25, i1 %26, i1 false
  %spec.store.select = select i1 %or.cond, i8 2, i8 %.03254
  br label %27

27:                                               ; preds = %24, %.lr.ph56
  %.133 = phi i8 [ %.03254, %.lr.ph56 ], [ %spec.store.select, %24 ]
  %indvars.iv.next70 = add nuw nsw i64 %indvars.iv69, 1
  %exitcond72.not = icmp eq i64 %indvars.iv.next70, %wide.trip.count71
  br i1 %exitcond72.not, label %.loopexit, label %.lr.ph56, !llvm.loop !10

.lr.ph48:                                         ; preds = %.lr.ph48.preheader, %35
  %indvars.iv65 = phi i64 [ 0, %.lr.ph48.preheader ], [ %indvars.iv.next66, %35 ]
  %.346 = phi i8 [ 1, %.lr.ph48.preheader ], [ %spec.select, %35 ]
  %28 = getelementptr inbounds nuw i8, ptr %4, i64 %indvars.iv65
  %29 = load i8, ptr %28, align 1
  %30 = icmp eq i8 %29, 0
  br i1 %30, label %.loopexit, label %31

31:                                               ; preds = %.lr.ph48
  %32 = getelementptr inbounds nuw i8, ptr %13, i64 %indvars.iv65
  %33 = load i8, ptr %32, align 1, !range !4, !noundef !5
  %34 = trunc nuw i8 %33 to i1
  br i1 %34, label %.loopexit, label %35

35:                                               ; preds = %31
  %36 = icmp eq i8 %29, 2
  %spec.select = select i1 %36, i8 2, i8 %.346
  %indvars.iv.next66 = add nuw nsw i64 %indvars.iv65, 1
  %exitcond68.not = icmp eq i64 %indvars.iv.next66, %wide.trip.count67
  br i1 %exitcond68.not, label %.loopexit, label %.lr.ph48, !llvm.loop !11

37:                                               ; preds = %.lr.ph
  %indvars.iv.next = add nuw nsw i64 %indvars.iv, 1
  %exitcond.not = icmp eq i64 %indvars.iv.next, %wide.trip.count
  br i1 %exitcond.not, label %.loopexit, label %.lr.ph, !llvm.loop !12

.lr.ph:                                           ; preds = %.lr.ph.preheader, %37
  %indvars.iv = phi i64 [ 0, %.lr.ph.preheader ], [ %indvars.iv.next, %37 ]
  %38 = getelementptr inbounds nuw i8, ptr %4, i64 %indvars.iv
  %39 = load i8, ptr %38, align 1
  %40 = icmp eq i8 %39, 0
  br i1 %40, label %.loopexit, label %37

41:                                               ; preds = %1
  %42 = trunc i64 %6 to i32
  %43 = and i32 %42, 65535
  %44 = tail call zeroext i1 @errstart_cold(i32 noundef 21, ptr noundef null) #6
  tail call void @llvm.assume(i1 %44)
  %45 = tail call i32 (ptr, ...) @errmsg_internal(ptr noundef nonnull @.str.3, i32 noundef %43) #5
  tail call void @errfinish(ptr noundef nonnull @.str.1, i32 noundef 300, ptr noundef nonnull @__func__.ginarraytriconsistent) #5
  unreachable

.loopexit:                                        ; preds = %37, %.lr.ph, %35, %31, %.lr.ph48, %27, %20, %.preheader40, %.preheader37, %.preheader, %1
  %.234 = phi i8 [ 2, %1 ], [ 0, %.preheader ], [ 1, %.preheader37 ], [ 2, %.preheader40 ], [ %.133, %27 ], [ 1, %20 ], [ %spec.select, %35 ], [ 0, %31 ], [ 0, %.lr.ph48 ], [ 2, %37 ], [ 0, %.lr.ph ]
  %46 = zext nneg i8 %.234 to i64
  ret i64 %46
}